target datalayout = "e-m:e-p270:32:32-p271:32:32-p272:64:64-i64:64-i128:128-f80:128-n8:16:32:64-S128"
target triple = "x86_64-pc-linux-gnu"

%struct.AVBPrint = type { ptr, i32, i32, i32, [1 x i8], [1000 x i8] }

@.str.10 = private unnamed_addr constant [2 x i8] c"\0A\00", align 1
@.str.21 = private unnamed_addr constant [7 x i8] c"%08x: \00", align 1
@.str.22 = private unnamed_addr constant [5 x i8] c"%02x\00", align 1
@.str.23 = private unnamed_addr constant [2 x i8] c" \00", align 1

; Function Attrs: nounwind uwtable
define void @avtext_print_data(ptr noundef %0, ptr noundef %1, ptr noundef %2, i32 noundef %3) #0 {
  %5 = alloca ptr, align 8
  %6 = alloca ptr, align 8
  %7 = alloca ptr, align 8
  %8 = alloca i32, align 4
  %9 = alloca %struct.AVBPrint, align 8
  %10 = alloca i32, align 4
  %11 = alloca i32, align 4
  %12 = alloca i32, align 4
  store ptr %0, ptr %5, align 8, !tbaa !10
  store ptr %1, ptr %6, align 8, !tbaa !30
  store ptr %2, ptr %7, align 8, !tbaa !30
  store i32 %3, ptr %8, align 4, !tbaa !12
  call void @llvm.lifetime.start.p0(i64 1024, ptr %9) #10
  call void @llvm.lifetime.start.p0(i64 4, ptr %10) #10
  store i32 0, ptr %10, align 4, !tbaa !12
  call void @llvm.lifetime.start.p0(i64 4, ptr %11) #10
  call void @llvm.lifetime.start.p0(i64 4, ptr %12) #10
  call void @av_bprint_init(ptr noundef %9, i32 noundef 0, i32 noundef -1)
  call void (ptr, ptr, ...) @av_bprintf(ptr noundef %9, ptr noundef @.str.10)
  br label %13

13:                                               ; preds = %78, %4
  %14 = load i32, ptr %8, align 4, !tbaa !12
  %15 = icmp ne i32 %14, 0
  br i1 %15, label %16, label %89

16:                                               ; preds = %13
  %17 = load i32, ptr %10, align 4, !tbaa !12
  call void (ptr, ptr, ...) @av_bprintf(ptr noundef %9, ptr noundef @.str.21, i32 noundef %17)
  %18 = load i32, ptr %8, align 4, !tbaa !12
  %19 = icmp sgt i32 %18, 16
  br i1 %19, label %20, label %21

20:                                               ; preds = %16
  br label %23

21:                                               ; preds = %16
  %22 = load i32, ptr %8, align 4, !tbaa !12
  br label %23

23:                                               ; preds = %21, %20
  %24 = phi i32 [ 16, %20 ], [ %22, %21 ]
  store i32 %24, ptr %11, align 4, !tbaa !12
  store i32 0, ptr %12, align 4, !tbaa !12
  br label %25

25:                                               ; preds = %41, %23
  %26 = load i32, ptr %12, align 4, !tbaa !12
  %27 = load i32, ptr %11, align 4, !tbaa !12
  %28 = icmp slt i32 %26, %27
  br i1 %28, label %29, label %44

29:                                               ; preds = %25
  %30 = load ptr, ptr %7, align 8, !tbaa !30
  %31 = load i32, ptr %12, align 4, !tbaa !12
  %32 = sext i32 %31 to i64
  %33 = getelementptr inbounds i8, ptr %30, i64 %32
  %34 = load i8, ptr %33, align 1, !tbaa !62
  %35 = zext i8 %34 to i32
  call void (ptr, ptr, ...) @av_bprintf(ptr noundef %9, ptr noundef @.str.22, i32 noundef %35)
  %36 = load i32, ptr %12, align 4, !tbaa !12
  %37 = and i32 %36, 1
  %38 = icmp ne i32 %37, 0
  br i1 %38, label %39, label %40

39:                                               ; preds = %29
  call void (ptr, ptr, ...) @av_bprintf(ptr noundef %9, ptr noundef @.str.23)
  br label %40

40:                                               ; preds = %39, %29
  br label %41

41:                                               ; preds = %40
  %42 = load i32, ptr %12, align 4, !tbaa !12
  %43 = add nsw i32 %42, 1
  store i32 %43, ptr %12, align 4, !tbaa !12
  br label %25, !llvm.loop !101

44:                                               ; preds = %25
  %45 = load i32, ptr %12, align 4, !tbaa !12
  %46 = mul nsw i32 2, %45
  %47 = sub nsw i32 41, %46
  %48 = load i32, ptr %12, align 4, !tbaa !12
  %49 = sdiv i32 %48, 2
  %50 = sub nsw i32 %47, %49
  call void @av_bprint_chars(ptr noundef %9, i8 noundef signext 32, i32 noundef %50)
  store i32 0, ptr %12, align 4, !tbaa !12
  br label %51

51:                                               ; preds = %75, %44
  %52 = load i32, ptr %12, align 4, !tbaa !12
  %53 = load i32, ptr %11, align 4, !tbaa !12
  %54 = icmp slt i32 %52, %53
  br i1 %54, label %55, label %78

55:                                               ; preds = %51
  %56 = load ptr, ptr %7, align 8, !tbaa !30
  %57 = load i32, ptr %12, align 4, !tbaa !12
  %58 = sext i32 %57 to i64
  %59 = getelementptr inbounds i8, ptr %56, i64 %58
  %60 = load i8, ptr %59, align 1, !tbaa !62
  %61 = zext i8 %60 to i32
  %62 = sub i32 %61, 32
  %63 = icmp ult i32 %62, 95
  br i1 %63, label %64, label %71

64:                                               ; preds = %55
  %65 = load ptr, ptr %7, align 8, !tbaa !30
  %66 = load i32, ptr %12, align 4, !tbaa !12
  %67 = sext i32 %66 to i64
  %68 = getelementptr inbounds i8, ptr %65, i64 %67
  %69 = load i8, ptr %68, align 1, !tbaa !62
  %70 = zext i8 %69 to i32
  br label %72

71:                                               ; preds = %55
  br label %72

72:                                               ; preds = %71, %64
  %73 = phi i32 [ %70, %64 ], [ 46, %71 ]
  %74 = trunc i32 %73 to i8
  call void @av_bprint_chars(ptr noundef %9, i8 noundef signext %74, i32 noundef 1)
  br label %75

75:                                               ; preds = %72
  %76 = load i32, ptr %12, align 4, !tbaa !12
  %77 = add nsw i32 %76, 1
  store i32 %77, ptr %12, align 4, !tbaa !12
  br label %51, !llvm.loop !102

78:                                               ; preds = %51
  call void (ptr, ptr, ...) @av_bprintf(ptr noundef %9, ptr noundef @.str.10)
  %79 = load i32, ptr %11, align 4, !tbaa !12
  %80 = load i32, ptr %10, align 4, !tbaa !12
  %81 = add i32 %80, %79
  store i32 %81, ptr %10, align 4, !tbaa !12
  %82 = load i32, ptr %11, align 4, !tbaa !12
  %83 = load ptr, ptr %7, align 8, !tbaa !30
  %84 = sext i32 %82 to i64
  %85 = getelementptr inbounds i8, ptr %83, i64 %84
  store ptr %85, ptr %7, align 8, !tbaa !30
  %86 = load i32, ptr %11, align 4, !tbaa !12
  %87 = load i32, ptr %8, align 4, !tbaa !12
  %88 = sub nsw i32 %87, %86
  store i32 %88, ptr %8, align 4, !tbaa !12
  br label %13, !llvm.loop !103

89:                                               ; preds = %13
  %90 = load ptr, ptr %5, align 8, !tbaa !10
  %91 = load ptr, ptr %6, align 8, !tbaa !30
  %92 = getelementptr inbounds nuw %struct.AVBPrint, ptr %9, i32 0, i32 0
  %93 = load ptr, ptr %92, align 8, !tbaa !64
  %94 = call i32 @avtext_print_string(ptr noundef %90, ptr noundef %91, ptr noundef %93, i32 noundef 0)
  %95 = call i32 @av_bprint_finalize(ptr noundef %9, ptr noundef null)
  call void @llvm.lifetime.end.p0(i64 4, ptr %12) #10
  call void @llvm.lifetime.end.p0(i64 4, ptr %11) #10
  call void @llvm.lifetime.end.p0(i64 4, ptr %10) #10
  call void @llvm.lifetime.end.p0(i64 1024, ptr %9) #10
  ret void
}