; Function Attrs: nounwind uwtable
define void @avtext_print_data(ptr noundef %0, ptr noundef %1, ptr noundef readonly captures(none) %2, i32 noundef %3) local_unnamed_addr #0 {
  %5 = alloca %struct.AVBPrint, align 8
  call void @llvm.lifetime.start.p0(i64 1024, ptr nonnull %5) #12
  call void @av_bprint_init(ptr noundef nonnull %5, i32 noundef 0, i32 noundef -1) #12
  call void (ptr, ptr, ...) @av_bprintf(ptr noundef nonnull %5, ptr noundef nonnull @.str.10) #12
  %.not38 = icmp eq i32 %3, 0
  br i1 %.not38, label %._crit_edge44, label %.lr.ph43

.lr.ph43:                                         ; preds = %4, %._crit_edge37
  %.02641 = phi ptr [ %22, %._crit_edge37 ], [ %2, %4 ]
  %.02740 = phi i32 [ %20, %._crit_edge37 ], [ 0, %4 ]
  %.02839 = phi i32 [ %23, %._crit_edge37 ], [ %3, %4 ]
  call void (ptr, ptr, ...) @av_bprintf(ptr noundef nonnull %5, ptr noundef nonnull @.str.21, i32 noundef %.02740) #12
  %6 = call i32 @llvm.smin.i32(i32 %.02839, i32 16)
  %7 = icmp sgt i32 %.02839, 0
  br i1 %7, label %.lr.ph.preheader, label %._crit_edge37.critedge

.lr.ph.preheader:                                 ; preds = %.lr.ph43
  %wide.trip.count = zext nneg i32 %6 to i64
  br label %.lr.ph

.lr.ph:                                           ; preds = %.lr.ph.preheader, %13
  %indvars.iv = phi i64 [ 0, %.lr.ph.preheader ], [ %indvars.iv.next, %13 ]
  %8 = getelementptr inbounds nuw i8, ptr %.02641, i64 %indvars.iv
  %9 = load i8, ptr %8, align 1, !tbaa !52
  %10 = zext i8 %9 to i32
  call void (ptr, ptr, ...) @av_bprintf(ptr noundef nonnull %5, ptr noundef nonnull @.str.22, i32 noundef %10) #12
  %11 = and i64 %indvars.iv, 1
  %.not30 = icmp eq i64 %11, 0
  br i1 %.not30, label %13, label %12

12:                                               ; preds = %.lr.ph
  call void (ptr, ptr, ...) @av_bprintf(ptr noundef nonnull %5, ptr noundef nonnull @.str.23) #12
  br label %13

13:                                               ; preds = %.lr.ph, %12
  %indvars.iv.next = add nuw nsw i64 %indvars.iv, 1
  %exitcond.not = icmp eq i64 %indvars.iv.next, %wide.trip.count
  br i1 %exitcond.not, label %._crit_edge, label %.lr.ph, !llvm.loop !74

._crit_edge:                                      ; preds = %13
  %14 = lshr i32 %6, 1
  %.neg = mul nsw i32 %6, -2
  %reass.sub = sub nsw i32 %.neg, %14
  %15 = add nsw i32 %reass.sub, 41
  call void @av_bprint_chars(ptr noundef nonnull %5, i8 noundef signext 32, i32 noundef %15) #12
  %wide.trip.count49 = zext nneg i32 %6 to i64
  br label %.lr.ph36

.lr.ph36:                                         ; preds = %._crit_edge, %.lr.ph36
  %indvars.iv46 = phi i64 [ 0, %._crit_edge ], [ %indvars.iv.next47, %.lr.ph36 ]
  %16 = getelementptr inbounds nuw i8, ptr %.02641, i64 %indvars.iv46
  %17 = load i8, ptr %16, align 1, !tbaa !52
  %18 = add i8 %17, -32
  %19 = icmp ult i8 %18, 95
  %spec.select = select i1 %19, i8 %17, i8 46
  call void @av_bprint_chars(ptr noundef nonnull %5, i8 noundef signext %spec.select, i32 noundef 1) #12
  %indvars.iv.next47 = add nuw nsw i64 %indvars.iv46, 1
  %exitcond50.not = icmp eq i64 %indvars.iv.next47, %wide.trip.count49
  br i1 %exitcond50.not, label %._crit_edge37, label %.lr.ph36, !llvm.loop !75

._crit_edge37.critedge:                           ; preds = %.lr.ph43
  call void @av_bprint_chars(ptr noundef nonnull %5, i8 noundef signext 32, i32 noundef 41) #12
  br label %._crit_edge37

._crit_edge37:                                    ; preds = %.lr.ph36, %._crit_edge37.critedge
  call void (ptr, ptr, ...) @av_bprintf(ptr noundef nonnull %5, ptr noundef nonnull @.str.10) #12
  %20 = add i32 %.02740, %6
  %21 = sext i32 %6 to i64
  %22 = getelementptr inbounds i8, ptr %.02641, i64 %21
  %23 = sub nsw i32 %.02839, %6
  %.not = icmp eq i32 %23, 0
  br i1 %.not, label %._crit_edge44, label %.lr.ph43, !llvm.loop !76

._crit_edge44:                                    ; preds = %._crit_edge37, %4
  %24 = load ptr, ptr %5, align 8, !tbaa !56
  %25 = call i32 @avtext_print_string(ptr noundef %0, ptr noundef %1, ptr noundef %24, i32 noundef 0)
  %26 = call i32 @av_bprint_finalize(ptr noundef nonnull %5, ptr noundef null) #12
  call void @llvm.lifetime.end.p0(i64 1024, ptr nonnull %5) #12
  ret void
}